target datalayout = "e-m:e-p270:32:32-p271:32:32-p272:64:64-i64:64-i128:128-f80:128-n8:16:32:64-S128"
target triple = "x86_64-pc-linux-gnu"

%struct._zval_struct = type { %union._zend_value, %union.anon, %union.anon.2 }
%union._zend_value = type { i64 }
%union.anon = type { i32 }
%union.anon.2 = type { i32 }
%struct._zend_refcounted_h = type { i32, %union.anon.3 }
%union.anon.3 = type { i32 }
%struct._zend_execute_data = type { ptr, ptr, ptr, ptr, %struct._zval_struct, ptr, ptr, ptr, ptr }
%struct._zend_object = type { %struct._zend_refcounted_h, i32, i32, ptr, ptr, ptr, [1 x %struct._zval_struct] }
%struct.anon.0 = type { i8, i8, %union.anon.1 }
%union.anon.1 = type { i16 }

@.str.10 = private unnamed_addr constant [23 x i8] c"%016zx0000000000000000\00", align 1

; Function Attrs: alwaysinline nounwind uwtable
define internal zeroext i1 @instanceof_function(ptr noundef %0, ptr noundef %1) #4 {
  %3 = alloca ptr, align 8
  %4 = alloca ptr, align 8
  store ptr %0, ptr %3, align 8, !tbaa !48
  store ptr %1, ptr %4, align 8, !tbaa !48
  %5 = load ptr, ptr %3, align 8, !tbaa !48
  %6 = load ptr, ptr %4, align 8, !tbaa !48
  %7 = icmp eq ptr %5, %6
  br i1 %7, label %12, label %8

8:                                                ; preds = %2
  %9 = load ptr, ptr %3, align 8, !tbaa !48
  %10 = load ptr, ptr %4, align 8, !tbaa !48
  %11 = call zeroext i1 @instanceof_function_slow(ptr noundef %9, ptr noundef %10)
  br label %12

12:                                               ; preds = %8, %2
  %13 = phi i1 [ true, %2 ], [ %11, %8 ]
  ret i1 %13
}

; Function Attrs: alwaysinline nounwind uwtable
define internal zeroext i8 @zval_get_type(ptr noundef %0) #4 {
  %2 = alloca ptr, align 8
  store ptr %0, ptr %2, align 8, !tbaa !9
  %3 = load ptr, ptr %2, align 8, !tbaa !9
  %4 = getelementptr inbounds nuw %struct._zval_struct, ptr %3, i32 0, i32 1
  %5 = getelementptr inbounds nuw %struct.anon.0, ptr %4, i32 0, i32 0
  %6 = load i8, ptr %5, align 8, !tbaa !13
  ret i8 %6
}

; Function Attrs: nounwind uwtable
define dso_local ptr @php_spl_object_hash(ptr noundef %0) #0 {
  %2 = alloca ptr, align 8
  store ptr %0, ptr %2, align 8, !tbaa !120
  %3 = load ptr, ptr %2, align 8, !tbaa !120
  %4 = getelementptr inbounds nuw %struct._zend_object, ptr %3, i32 0, i32 1
  %5 = load i32, ptr %4, align 8, !tbaa !122
  %6 = zext i32 %5 to i64
  %7 = call ptr (i64, ptr, ...) @zend_strpprintf(i64 noundef 32, ptr noundef @.str.10, i64 noundef %6)
  ret ptr %7
}

; Function Attrs: alwaysinline nounwind uwtable
define internal zeroext i1 @zend_parse_arg_obj(ptr noundef %0, ptr noundef %1, ptr noundef %2, i1 noundef zeroext %3) #4 {
  %5 = alloca i1, align 1
  %6 = alloca ptr, align 8
  %7 = alloca ptr, align 8
  %8 = alloca ptr, align 8
  %9 = alloca i8, align 1
  store ptr %0, ptr %6, align 8, !tbaa !9
  store ptr %1, ptr %7, align 8, !tbaa !121
  store ptr %2, ptr %8, align 8, !tbaa !48
  %10 = zext i1 %3 to i8
  store i8 %10, ptr %9, align 1, !tbaa !11
  %11 = load ptr, ptr %6, align 8, !tbaa !9
  %12 = call zeroext i8 @zval_get_type(ptr noundef %11)
  %13 = zext i8 %12 to i32
  %14 = icmp eq i32 %13, 8
  %15 = xor i1 %14, true
  %16 = xor i1 %15, true
  %17 = zext i1 %16 to i32
  %18 = sext i32 %17 to i64
  %19 = call i64 @llvm.expect.i64(i64 %18, i64 1)
  %20 = icmp ne i64 %19, 0
  br i1 %20, label %21, label %45

21:                                               ; preds = %4
  %22 = load ptr, ptr %8, align 8, !tbaa !48
  %23 = icmp ne ptr %22, null
  br i1 %23, label %24, label %40

24:                                               ; preds = %21
  %25 = load ptr, ptr %6, align 8, !tbaa !9
  %26 = getelementptr inbounds nuw %struct._zval_struct, ptr %25, i32 0, i32 0
  %27 = load ptr, ptr %26, align 8, !tbaa !13
  %28 = getelementptr inbounds nuw %struct._zend_object, ptr %27, i32 0, i32 3
  %29 = load ptr, ptr %28, align 8, !tbaa !49
  %30 = load ptr, ptr %8, align 8, !tbaa !48
  %31 = call zeroext i1 @instanceof_function(ptr noundef %29, ptr noundef %30)
  %32 = zext i1 %31 to i32
  %33 = icmp ne i32 %32, 0
  %34 = xor i1 %33, true
  %35 = xor i1 %34, true
  %36 = zext i1 %35 to i32
  %37 = sext i32 %36 to i64
  %38 = call i64 @llvm.expect.i64(i64 %37, i64 1)
  %39 = icmp ne i64 %38, 0
  br i1 %39, label %40, label %45

40:                                               ; preds = %24, %21
  %41 = load ptr, ptr %6, align 8, !tbaa !9
  %42 = getelementptr inbounds nuw %struct._zval_struct, ptr %41, i32 0, i32 0
  %43 = load ptr, ptr %42, align 8, !tbaa !13
  %44 = load ptr, ptr %7, align 8, !tbaa !121
  store ptr %43, ptr %44, align 8, !tbaa !120
  br label %63

45:                                               ; preds = %24, %4
  %46 = load i8, ptr %9, align 1, !tbaa !11, !range !46, !noundef !47
  %47 = trunc i8 %46 to i1
  br i1 %47, label %48, label %61

48:                                               ; preds = %45
  %49 = load ptr, ptr %6, align 8, !tbaa !9
  %50 = call zeroext i8 @zval_get_type(ptr noundef %49)
  %51 = zext i8 %50 to i32
  %52 = icmp eq i32 %51, 1
  %53 = xor i1 %52, true
  %54 = xor i1 %53, true
  %55 = zext i1 %54 to i32
  %56 = sext i32 %55 to i64
  %57 = call i64 @llvm.expect.i64(i64 %56, i64 1)
  %58 = icmp ne i64 %57, 0
  br i1 %58, label %59, label %61

59:                                               ; preds = %48
  %60 = load ptr, ptr %7, align 8, !tbaa !121
  store ptr null, ptr %60, align 8, !tbaa !120
  br label %62

61:                                               ; preds = %48, %45
  store i1 false, ptr %5, align 1
  br label %64

62:                                               ; preds = %59
  br label %63

63:                                               ; preds = %62, %40
  store i1 true, ptr %5, align 1
  br label %64

64:                                               ; preds = %63, %61
  %65 = load i1, ptr %5, align 1
  ret i1 %65
}

; Function Attrs: nounwind uwtable
define hidden void @zif_spl_object_hash(ptr noundef %0, ptr noundef %1) #0 {
  %3 = alloca ptr, align 8
  %4 = alloca ptr, align 8
  %5 = alloca ptr, align 8
  %6 = alloca i32, align 4
  %7 = alloca i32, align 4
  %8 = alloca i32, align 4
  %9 = alloca i32, align 4
  %10 = alloca i32, align 4
  %11 = alloca ptr, align 8
  %12 = alloca ptr, align 8
  %13 = alloca i32, align 4
  %14 = alloca ptr, align 8
  %15 = alloca i8, align 1
  %16 = alloca i8, align 1
  %17 = alloca i32, align 4
  %18 = alloca i32, align 4
  %19 = alloca ptr, align 8
  %20 = alloca ptr, align 8
  store ptr %0, ptr %3, align 8, !tbaa !4
  store ptr %1, ptr %4, align 8, !tbaa !9
  call void @llvm.lifetime.start.p0(i64 8, ptr %5) #12
  br label %21

21:                                               ; preds = %2
  call void @llvm.lifetime.start.p0(i64 4, ptr %6) #12
  store i32 0, ptr %6, align 4, !tbaa !56
  call void @llvm.lifetime.start.p0(i64 4, ptr %7) #12
  store i32 1, ptr %7, align 4, !tbaa !56
  call void @llvm.lifetime.start.p0(i64 4, ptr %8) #12
  store i32 1, ptr %8, align 4, !tbaa !56
  call void @llvm.lifetime.start.p0(i64 4, ptr %9) #12
  %22 = load ptr, ptr %3, align 8, !tbaa !4
  %23 = getelementptr inbounds nuw %struct._zend_execute_data, ptr %22, i32 0, i32 4
  %24 = getelementptr inbounds nuw %struct._zval_struct, ptr %23, i32 0, i32 2
  %25 = load i32, ptr %24, align 4, !tbaa !13
  store i32 %25, ptr %9, align 4, !tbaa !56
  call void @llvm.lifetime.start.p0(i64 4, ptr %10) #12
  store i32 0, ptr %10, align 4, !tbaa !56
  call void @llvm.lifetime.start.p0(i64 8, ptr %11) #12
  call void @llvm.lifetime.start.p0(i64 8, ptr %12) #12
  store ptr null, ptr %12, align 8, !tbaa !9
  call void @llvm.lifetime.start.p0(i64 4, ptr %13) #12
  store i32 0, ptr %13, align 4, !tbaa !56
  call void @llvm.lifetime.start.p0(i64 8, ptr %14) #12
  store ptr null, ptr %14, align 8, !tbaa !55
  call void @llvm.lifetime.start.p0(i64 1, ptr %15) #12
  store i8 0, ptr %15, align 1, !tbaa !11
  call void @llvm.lifetime.start.p0(i64 1, ptr %16) #12
  store i8 0, ptr %16, align 1, !tbaa !11
  call void @llvm.lifetime.start.p0(i64 4, ptr %17) #12
  store i32 0, ptr %17, align 4, !tbaa !56
  br label %26

26:                                               ; preds = %21
  %27 = load i32, ptr %9, align 4, !tbaa !56
  %28 = load i32, ptr %7, align 4, !tbaa !56
  %29 = icmp ult i32 %27, %28
  %30 = xor i1 %29, true
  %31 = xor i1 %30, true
  %32 = zext i1 %31 to i32
  %33 = sext i32 %32 to i64
  %34 = call i64 @llvm.expect.i64(i64 %33, i64 0)
  %35 = icmp ne i64 %34, 0
  br i1 %35, label %46, label %36

36:                                               ; preds = %26
  %37 = load i32, ptr %9, align 4, !tbaa !56
  %38 = load i32, ptr %8, align 4, !tbaa !56
  %39 = icmp ugt i32 %37, %38
  %40 = xor i1 %39, true
  %41 = xor i1 %40, true
  %42 = zext i1 %41 to i32
  %43 = sext i32 %42 to i64
  %44 = call i64 @llvm.expect.i64(i64 %43, i64 0)
  %45 = icmp ne i64 %44, 0
  br i1 %45, label %46, label %49

46:                                               ; preds = %36, %26
  %47 = load i32, ptr %7, align 4, !tbaa !56
  %48 = load i32, ptr %8, align 4, !tbaa !56
  call void @zend_wrong_parameters_count_error(i32 noundef %47, i32 noundef %48)
  store i32 1, ptr %17, align 4, !tbaa !56
  br label %112

49:                                               ; preds = %36
  %50 = load ptr, ptr %3, align 8, !tbaa !4
  %51 = getelementptr inbounds %struct._zval_struct, ptr %50, i64 4
  store ptr %51, ptr %11, align 8, !tbaa !9
  %52 = load i32, ptr %10, align 4, !tbaa !56
  %53 = add i32 %52, 1
  store i32 %53, ptr %10, align 4, !tbaa !56
  %54 = load i32, ptr %10, align 4, !tbaa !56
  %55 = load i32, ptr %7, align 4, !tbaa !56
  %56 = icmp ule i32 %54, %55
  br i1 %56, label %62, label %57

57:                                               ; preds = %49
  %58 = load i8, ptr %16, align 1, !tbaa !11, !range !46, !noundef !47
  %59 = trunc i8 %58 to i1
  %60 = zext i1 %59 to i32
  %61 = icmp eq i32 %60, 1
  br label %62

62:                                               ; preds = %57, %49
  %63 = phi i1 [ true, %49 ], [ %61, %57 ]
  call void @llvm.assume(i1 %63)
  %64 = load i32, ptr %10, align 4, !tbaa !56
  %65 = load i32, ptr %7, align 4, !tbaa !56
  %66 = icmp ugt i32 %64, %65
  br i1 %66, label %72, label %67

67:                                               ; preds = %62
  %68 = load i8, ptr %16, align 1, !tbaa !11, !range !46, !noundef !47
  %69 = trunc i8 %68 to i1
  %70 = zext i1 %69 to i32
  %71 = icmp eq i32 %70, 0
  br label %72

72:                                               ; preds = %67, %62
  %73 = phi i1 [ true, %62 ], [ %71, %67 ]
  call void @llvm.assume(i1 %73)
  %74 = load i8, ptr %16, align 1, !tbaa !11, !range !46, !noundef !47
  %75 = trunc i8 %74 to i1
  br i1 %75, label %76, label %88

76:                                               ; preds = %72
  %77 = load i32, ptr %10, align 4, !tbaa !56
  %78 = load i32, ptr %9, align 4, !tbaa !56
  %79 = icmp ugt i32 %77, %78
  %80 = xor i1 %79, true
  %81 = xor i1 %80, true
  %82 = zext i1 %81 to i32
  %83 = sext i32 %82 to i64
  %84 = call i64 @llvm.expect.i64(i64 %83, i64 0)
  %85 = icmp ne i64 %84, 0
  br i1 %85, label %86, label %87

86:                                               ; preds = %76
  br label %112

87:                                               ; preds = %76
  br label %88

88:                                               ; preds = %87, %72
  %89 = load ptr, ptr %11, align 8, !tbaa !9
  %90 = getelementptr inbounds nuw %struct._zval_struct, ptr %89, i32 1
  store ptr %90, ptr %11, align 8, !tbaa !9
  %91 = load ptr, ptr %11, align 8, !tbaa !9
  store ptr %91, ptr %12, align 8, !tbaa !9
  %92 = load ptr, ptr %12, align 8, !tbaa !9
  %93 = call zeroext i1 @zend_parse_arg_obj(ptr noundef %92, ptr noundef %5, ptr noundef null, i1 noundef zeroext false)
  %94 = xor i1 %93, true
  %95 = xor i1 %94, true
  %96 = xor i1 %95, true
  %97 = zext i1 %96 to i32
  %98 = sext i32 %97 to i64
  %99 = call i64 @llvm.expect.i64(i64 %98, i64 0)
  %100 = icmp ne i64 %99, 0
  br i1 %100, label %101, label %102

101:                                              ; preds = %88
  store i32 18, ptr %13, align 4, !tbaa !56
  store i32 9, ptr %17, align 4, !tbaa !56
  br label %112

102:                                              ; preds = %88
  %103 = load i32, ptr %10, align 4, !tbaa !56
  %104 = load i32, ptr %8, align 4, !tbaa !56
  %105 = icmp eq i32 %103, %104
  br i1 %105, label %109, label %106

106:                                              ; preds = %102
  %107 = load i32, ptr %8, align 4, !tbaa !56
  %108 = icmp eq i32 %107, -1
  br label %109

109:                                              ; preds = %106, %102
  %110 = phi i1 [ true, %102 ], [ %108, %106 ]
  call void @llvm.assume(i1 %110)
  br label %111

111:                                              ; preds = %109
  br label %112

112:                                              ; preds = %111, %101, %86, %46
  %113 = load i32, ptr %17, align 4, !tbaa !56
  %114 = icmp ne i32 %113, 0
  %115 = xor i1 %114, true
  %116 = xor i1 %115, true
  %117 = zext i1 %116 to i32
  %118 = sext i32 %117 to i64
  %119 = call i64 @llvm.expect.i64(i64 %118, i64 0)
  %120 = icmp ne i64 %119, 0
  br i1 %120, label %121, label %127

121:                                              ; preds = %112
  %122 = load i32, ptr %17, align 4, !tbaa !56
  %123 = load i32, ptr %10, align 4, !tbaa !56
  %124 = load ptr, ptr %14, align 8, !tbaa !55
  %125 = load i32, ptr %13, align 4, !tbaa !56
  %126 = load ptr, ptr %12, align 8, !tbaa !9
  call void @zend_wrong_parameter_error(i32 noundef %122, i32 noundef %123, ptr noundef %124, i32 noundef %125, ptr noundef %126)
  store i32 1, ptr %18, align 4
  br label %128

127:                                              ; preds = %112
  store i32 0, ptr %18, align 4
  br label %128

128:                                              ; preds = %127, %121
  call void @llvm.lifetime.end.p0(i64 4, ptr %17) #12
  call void @llvm.lifetime.end.p0(i64 1, ptr %16) #12
  call void @llvm.lifetime.end.p0(i64 1, ptr %15) #12
  call void @llvm.lifetime.end.p0(i64 8, ptr %14) #12
  call void @llvm.lifetime.end.p0(i64 4, ptr %13) #12
  call void @llvm.lifetime.end.p0(i64 8, ptr %12) #12
  call void @llvm.lifetime.end.p0(i64 8, ptr %11) #12
  call void @llvm.lifetime.end.p0(i64 4, ptr %10) #12
  call void @llvm.lifetime.end.p0(i64 4, ptr %9) #12
  call void @llvm.lifetime.end.p0(i64 4, ptr %8) #12
  call void @llvm.lifetime.end.p0(i64 4, ptr %7) #12
  call void @llvm.lifetime.end.p0(i64 4, ptr %6) #12
  %129 = load i32, ptr %18, align 4
  switch i32 %129, label %147 [
    i32 0, label %130
  ]

130:                                              ; preds = %128
  br label %131

131:                                              ; preds = %130
  br label %132

132:                                              ; preds = %131
  br label %133

133:                                              ; preds = %132
  br label %134

134:                                              ; preds = %133
  call void @llvm.lifetime.start.p0(i64 8, ptr %19) #12
  %135 = load ptr, ptr %4, align 8, !tbaa !9
  store ptr %135, ptr %19, align 8, !tbaa !9
  call void @llvm.lifetime.start.p0(i64 8, ptr %20) #12
  %136 = load ptr, ptr %5, align 8, !tbaa !120
  %137 = call ptr @php_spl_object_hash(ptr noundef %136)
  store ptr %137, ptr %20, align 8, !tbaa !53
  %138 = load ptr, ptr %20, align 8, !tbaa !53
  %139 = load ptr, ptr %19, align 8, !tbaa !9
  %140 = getelementptr inbounds nuw %struct._zval_struct, ptr %139, i32 0, i32 0
  store ptr %138, ptr %140, align 8, !tbaa !13
  %141 = load ptr, ptr %19, align 8, !tbaa !9
  %142 = getelementptr inbounds nuw %struct._zval_struct, ptr %141, i32 0, i32 1
  store i32 262, ptr %142, align 8, !tbaa !13
  call void @llvm.lifetime.end.p0(i64 8, ptr %20) #12
  call void @llvm.lifetime.end.p0(i64 8, ptr %19) #12
  br label %143

143:                                              ; preds = %134
  br label %144

144:                                              ; preds = %143
  store i32 1, ptr %18, align 4
  br label %147

145:                                              ; No predecessors!
  br label %146

146:                                              ; preds = %145
  store i32 0, ptr %18, align 4
  br label %147

147:                                              ; preds = %146, %144, %128
  call void @llvm.lifetime.end.p0(i64 8, ptr %5) #12
  %148 = load i32, ptr %18, align 4
  switch i32 %148, label %150 [
    i32 0, label %149
    i32 1, label %149
  ]

149:                                              ; preds = %147, %147
  ret void

150:                                              ; preds = %147
  unreachable
}