; Function Attrs: nounwind uwtable
define hidden void @zif_spl_object_hash(ptr noundef %0, ptr noundef writeonly captures(none) %1) #0 {
  %3 = getelementptr inbounds nuw i8, ptr %0, i64 44
  %4 = load i32, ptr %3, align 4, !tbaa !8
  %cond = icmp eq i32 %4, 1
  br i1 %cond, label %5, label %.thread, !prof !99

.thread:                                          ; preds = %2
  tail call void @zend_wrong_parameters_count_error(i32 noundef 1, i32 noundef 1) #10
  br label %10

5:                                                ; preds = %2
  %6 = getelementptr inbounds nuw i8, ptr %0, i64 80
  %7 = getelementptr inbounds nuw i8, ptr %0, i64 88
  %8 = load i8, ptr %7, align 8, !tbaa !8
  %9 = icmp eq i8 %8, 8
  br i1 %9, label %.critedge, label %10, !prof !52

10:                                               ; preds = %5, %.thread
  %.052 = phi i32 [ 0, %.thread ], [ 1, %5 ]
  %.03551 = phi i32 [ 1, %.thread ], [ 9, %5 ]
  %.03650 = phi ptr [ null, %.thread ], [ %6, %5 ]
  %.03749 = phi i32 [ 0, %.thread ], [ 18, %5 ]
  tail call void @zend_wrong_parameter_error(i32 noundef %.03551, i32 noundef %.052, ptr noundef null, i32 noundef %.03749, ptr noundef %.03650) #10
  br label %17

.critedge:                                        ; preds = %5
  %11 = load ptr, ptr %6, align 8, !tbaa !8
  %12 = getelementptr inbounds nuw i8, ptr %11, i64 8
  %13 = load i32, ptr %12, align 8, !tbaa !110
  %14 = zext i32 %13 to i64
  %15 = tail call ptr (i64, ptr, ...) @zend_strpprintf(i64 noundef 32, ptr noundef nonnull @.str.10, i64 noundef %14) #10
  store ptr %15, ptr %1, align 8, !tbaa !8
  %16 = getelementptr inbounds nuw i8, ptr %1, i64 8
  store i32 262, ptr %16, align 8, !tbaa !8
  br label %17

17:                                               ; preds = %10, %.critedge
  ret void
}